target datalayout = "e-m:e-p270:32:32-p271:32:32-p272:64:64-i64:64-i128:128-f80:128-n8:16:32:64-S128"
target triple = "x86_64-pc-linux-gnu"

; Function Attrs: mustprogress nounwind uwtable
define noundef i32 @_ZNK6icu_7717RuleBasedTimeZone13getLocalDeltaEiiiiii(ptr noundef nonnull align 8 dereferenceable(105) %0, i32 noundef %1, i32 noundef %2, i32 noundef %3, i32 noundef %4, i32 noundef %5, i32 noundef %6) #0 align 2 {
  %8 = alloca ptr, align 8
  %9 = alloca i32, align 4
  %10 = alloca i32, align 4
  %11 = alloca i32, align 4
  %12 = alloca i32, align 4
  %13 = alloca i32, align 4
  %14 = alloca i32, align 4
  %15 = alloca i32, align 4
  %16 = alloca i32, align 4
  %17 = alloca i32, align 4
  %18 = alloca i8, align 1
  %19 = alloca i8, align 1
  store ptr %0, ptr %8, align 8, !tbaa !3
  store i32 %1, ptr %9, align 4, !tbaa !29
  store i32 %2, ptr %10, align 4, !tbaa !29
  store i32 %3, ptr %11, align 4, !tbaa !29
  store i32 %4, ptr %12, align 4, !tbaa !29
  store i32 %5, ptr %13, align 4, !tbaa !29
  store i32 %6, ptr %14, align 4, !tbaa !29
  call void @llvm.lifetime.start.p0(i64 4, ptr %15) #12
  store i32 0, ptr %15, align 4, !tbaa !29
  call void @llvm.lifetime.start.p0(i64 4, ptr %16) #12
  %20 = load i32, ptr %9, align 4, !tbaa !29
  %21 = load i32, ptr %10, align 4, !tbaa !29
  %22 = add nsw i32 %20, %21
  store i32 %22, ptr %16, align 4, !tbaa !29
  call void @llvm.lifetime.start.p0(i64 4, ptr %17) #12
  %23 = load i32, ptr %11, align 4, !tbaa !29
  %24 = load i32, ptr %12, align 4, !tbaa !29
  %25 = add nsw i32 %23, %24
  store i32 %25, ptr %17, align 4, !tbaa !29
  call void @llvm.lifetime.start.p0(i64 1, ptr %18) #12
  %26 = load i32, ptr %10, align 4, !tbaa !29
  %27 = icmp ne i32 %26, 0
  br i1 %27, label %28, label %31

28:                                               ; preds = %7
  %29 = load i32, ptr %12, align 4, !tbaa !29
  %30 = icmp eq i32 %29, 0
  br label %31

31:                                               ; preds = %28, %7
  %32 = phi i1 [ false, %7 ], [ %30, %28 ]
  %33 = zext i1 %32 to i8
  store i8 %33, ptr %18, align 1, !tbaa !43
  call void @llvm.lifetime.start.p0(i64 1, ptr %19) #12
  %34 = load i32, ptr %10, align 4, !tbaa !29
  %35 = icmp eq i32 %34, 0
  br i1 %35, label %36, label %39

36:                                               ; preds = %31
  %37 = load i32, ptr %12, align 4, !tbaa !29
  %38 = icmp ne i32 %37, 0
  br label %39

39:                                               ; preds = %36, %31
  %40 = phi i1 [ false, %31 ], [ %38, %36 ]
  %41 = zext i1 %40 to i8
  store i8 %41, ptr %19, align 1, !tbaa !43
  %42 = load i32, ptr %17, align 4, !tbaa !29
  %43 = load i32, ptr %16, align 4, !tbaa !29
  %44 = sub nsw i32 %42, %43
  %45 = icmp sge i32 %44, 0
  br i1 %45, label %46, label %89

46:                                               ; preds = %39
  %47 = load i32, ptr %13, align 4, !tbaa !29
  %48 = and i32 %47, 3
  %49 = icmp eq i32 %48, 1
  br i1 %49, label %50, label %53

50:                                               ; preds = %46
  %51 = load i8, ptr %18, align 1, !tbaa !43
  %52 = icmp ne i8 %51, 0
  br i1 %52, label %60, label %53

53:                                               ; preds = %50, %46
  %54 = load i32, ptr %13, align 4, !tbaa !29
  %55 = and i32 %54, 3
  %56 = icmp eq i32 %55, 3
  br i1 %56, label %57, label %62

57:                                               ; preds = %53
  %58 = load i8, ptr %19, align 1, !tbaa !43
  %59 = icmp ne i8 %58, 0
  br i1 %59, label %60, label %62

60:                                               ; preds = %57, %50
  %61 = load i32, ptr %16, align 4, !tbaa !29
  store i32 %61, ptr %15, align 4, !tbaa !29
  br label %88

62:                                               ; preds = %57, %53
  %63 = load i32, ptr %13, align 4, !tbaa !29
  %64 = and i32 %63, 3
  %65 = icmp eq i32 %64, 1
  br i1 %65, label %66, label %69

66:                                               ; preds = %62
  %67 = load i8, ptr %19, align 1, !tbaa !43
  %68 = icmp ne i8 %67, 0
  br i1 %68, label %76, label %69

69:                                               ; preds = %66, %62
  %70 = load i32, ptr %13, align 4, !tbaa !29
  %71 = and i32 %70, 3
  %72 = icmp eq i32 %71, 3
  br i1 %72, label %73, label %78

73:                                               ; preds = %69
  %74 = load i8, ptr %18, align 1, !tbaa !43
  %75 = icmp ne i8 %74, 0
  br i1 %75, label %76, label %78

76:                                               ; preds = %73, %66
  %77 = load i32, ptr %17, align 4, !tbaa !29
  store i32 %77, ptr %15, align 4, !tbaa !29
  br label %87

78:                                               ; preds = %73, %69
  %79 = load i32, ptr %13, align 4, !tbaa !29
  %80 = and i32 %79, 12
  %81 = icmp eq i32 %80, 12
  br i1 %81, label %82, label %84

82:                                               ; preds = %78
  %83 = load i32, ptr %16, align 4, !tbaa !29
  store i32 %83, ptr %15, align 4, !tbaa !29
  br label %86

84:                                               ; preds = %78
  %85 = load i32, ptr %17, align 4, !tbaa !29
  store i32 %85, ptr %15, align 4, !tbaa !29
  br label %86

86:                                               ; preds = %84, %82
  br label %87

87:                                               ; preds = %86, %76
  br label %88

88:                                               ; preds = %87, %60
  br label %132

89:                                               ; preds = %39
  %90 = load i32, ptr %14, align 4, !tbaa !29
  %91 = and i32 %90, 3
  %92 = icmp eq i32 %91, 1
  br i1 %92, label %93, label %96

93:                                               ; preds = %89
  %94 = load i8, ptr %18, align 1, !tbaa !43
  %95 = icmp ne i8 %94, 0
  br i1 %95, label %103, label %96

96:                                               ; preds = %93, %89
  %97 = load i32, ptr %14, align 4, !tbaa !29
  %98 = and i32 %97, 3
  %99 = icmp eq i32 %98, 3
  br i1 %99, label %100, label %105

100:                                              ; preds = %96
  %101 = load i8, ptr %19, align 1, !tbaa !43
  %102 = icmp ne i8 %101, 0
  br i1 %102, label %103, label %105

103:                                              ; preds = %100, %93
  %104 = load i32, ptr %17, align 4, !tbaa !29
  store i32 %104, ptr %15, align 4, !tbaa !29
  br label %131

105:                                              ; preds = %100, %96
  %106 = load i32, ptr %14, align 4, !tbaa !29
  %107 = and i32 %106, 3
  %108 = icmp eq i32 %107, 1
  br i1 %108, label %109, label %112

109:                                              ; preds = %105
  %110 = load i8, ptr %19, align 1, !tbaa !43
  %111 = icmp ne i8 %110, 0
  br i1 %111, label %119, label %112

112:                                              ; preds = %109, %105
  %113 = load i32, ptr %14, align 4, !tbaa !29
  %114 = and i32 %113, 3
  %115 = icmp eq i32 %114, 3
  br i1 %115, label %116, label %121

116:                                              ; preds = %112
  %117 = load i8, ptr %18, align 1, !tbaa !43
  %118 = icmp ne i8 %117, 0
  br i1 %118, label %119, label %121

119:                                              ; preds = %116, %109
  %120 = load i32, ptr %16, align 4, !tbaa !29
  store i32 %120, ptr %15, align 4, !tbaa !29
  br label %130

121:                                              ; preds = %116, %112
  %122 = load i32, ptr %14, align 4, !tbaa !29
  %123 = and i32 %122, 12
  %124 = icmp eq i32 %123, 4
  br i1 %124, label %125, label %127

125:                                              ; preds = %121
  %126 = load i32, ptr %16, align 4, !tbaa !29
  store i32 %126, ptr %15, align 4, !tbaa !29
  br label %129

127:                                              ; preds = %121
  %128 = load i32, ptr %17, align 4, !tbaa !29
  store i32 %128, ptr %15, align 4, !tbaa !29
  br label %129

129:                                              ; preds = %127, %125
  br label %130

130:                                              ; preds = %129, %119
  br label %131

131:                                              ; preds = %130, %103
  br label %132

132:                                              ; preds = %131, %88
  %133 = load i32, ptr %15, align 4, !tbaa !29
  call void @llvm.lifetime.end.p0(i64 1, ptr %19) #12
  call void @llvm.lifetime.end.p0(i64 1, ptr %18) #12
  call void @llvm.lifetime.end.p0(i64 4, ptr %17) #12
  call void @llvm.lifetime.end.p0(i64 4, ptr %16) #12
  call void @llvm.lifetime.end.p0(i64 4, ptr %15) #12
  ret i32 %133
}