; Function Attrs: mustprogress nofree norecurse nosync nounwind willreturn memory(none) uwtable
define noundef i32 @_ZNK6icu_7717RuleBasedTimeZone13getLocalDeltaEiiiiii(ptr noundef nonnull readnone align 8 captures(none) dereferenceable(105) %0, i32 noundef %1, i32 noundef %2, i32 noundef %3, i32 noundef %4, i32 noundef %5, i32 noundef %6) local_unnamed_addr #0 align 2 {
  %8 = add nsw i32 %2, %1
  %9 = add nsw i32 %4, %3
  %10 = icmp ne i32 %2, 0
  %11 = icmp eq i32 %4, 0
  %12 = and i1 %10, %11
  %13 = icmp eq i32 %2, 0
  %14 = icmp ne i32 %4, 0
  %15 = and i1 %13, %14
  %.not = icmp slt i32 %9, %8
  br i1 %.not, label %25, label %16

16:                                               ; preds = %7
  %17 = and i32 %5, 3
  %18 = icmp eq i32 %17, 1
  %or.cond = and i1 %12, %18
  br i1 %or.cond, label %34, label %19

19:                                               ; preds = %16
  %20 = icmp eq i32 %17, 3
  %or.cond3 = and i1 %15, %20
  br i1 %or.cond3, label %34, label %21

21:                                               ; preds = %19
  %or.cond5 = and i1 %15, %18
  %or.cond7 = and i1 %12, %20
  %or.cond52 = or i1 %or.cond5, %or.cond7
  br i1 %or.cond52, label %34, label %22

22:                                               ; preds = %21
  %23 = and i32 %5, 12
  %24 = icmp eq i32 %23, 12
  %. = select i1 %24, i32 %8, i32 %9
  br label %34

25:                                               ; preds = %7
  %26 = and i32 %6, 3
  %27 = icmp eq i32 %26, 1
  %or.cond9 = and i1 %12, %27
  br i1 %or.cond9, label %34, label %28

28:                                               ; preds = %25
  %29 = icmp eq i32 %26, 3
  %or.cond11 = and i1 %15, %29
  br i1 %or.cond11, label %34, label %30

30:                                               ; preds = %28
  %or.cond13 = and i1 %15, %27
  %or.cond15 = and i1 %12, %29
  %or.cond53 = or i1 %or.cond13, %or.cond15
  br i1 %or.cond53, label %34, label %31

31:                                               ; preds = %30
  %32 = and i32 %6, 12
  %33 = icmp eq i32 %32, 4
  %.54 = select i1 %33, i32 %8, i32 %9
  br label %34

34:                                               ; preds = %31, %30, %25, %28, %22, %21, %16, %19
  %.0 = phi i32 [ %8, %19 ], [ %8, %16 ], [ %9, %21 ], [ %., %22 ], [ %9, %28 ], [ %9, %25 ], [ %8, %30 ], [ %.54, %31 ]
  ret i32 %.0
}